target datalayout = "e-m:e-p270:32:32-p271:32:32-p272:64:64-i64:64-i128:128-f80:128-n8:16:32:64-S128"
target triple = "x86_64-pc-linux-gnu"

%"class.llvm::StringRef" = type { ptr, i64 }
%"struct.std::pair" = type <{ i64, i32, [4 x i8] }>
%"class.clang::format::BreakableStringLiteral" = type <{ %"class.clang::format::BreakableToken", i32, [4 x i8], %"class.llvm::StringRef", %"class.llvm::StringRef", %"class.llvm::StringRef", i32, [4 x i8] }>
%"class.clang::format::BreakableToken" = type { ptr, ptr, i8, i32, ptr }

; Function Attrs: mustprogress nounwind uwtable
define linkonce_odr hidden noundef i64 @_ZNK4llvm9StringRef4sizeEv(ptr noundef nonnull align 8 dereferenceable(16) %0) #0 comdat align 2 {
  %2 = alloca ptr, align 8
  store ptr %0, ptr %2, align 8
  %3 = load ptr, ptr %2, align 8
  %4 = getelementptr inbounds nuw %"class.llvm::StringRef", ptr %3, i32 0, i32 1
  %5 = load i64, ptr %4, align 8
  ret i64 %5
}

; Function Attrs: mustprogress nounwind uwtable
define dso_local void @_ZNK5clang6format22BreakableStringLiteral11insertBreakEjjSt4pairImjEjRNS0_17WhitespaceManagerE(ptr noundef nonnull align 8 dereferenceable(92) %0, i32 noundef %1, i32 noundef %2, i64 %3, i32 %4, i32 noundef %5, ptr noundef nonnull align 8 dereferenceable(2257) %6) unnamed_addr #0 align 2 {
  %8 = alloca %"struct.std::pair", align 8
  %9 = alloca ptr, align 8
  %10 = alloca i32, align 4
  %11 = alloca i32, align 4
  %12 = alloca i32, align 4
  %13 = alloca ptr, align 8
  %14 = alloca %"class.llvm::StringRef", align 8
  %15 = alloca %"class.llvm::StringRef", align 8
  %16 = getelementptr inbounds nuw { i64, i32 }, ptr %8, i32 0, i32 0
  store i64 %3, ptr %16, align 8
  %17 = getelementptr inbounds nuw { i64, i32 }, ptr %8, i32 0, i32 1
  store i32 %4, ptr %17, align 8
  store ptr %0, ptr %9, align 8
  store i32 %1, ptr %10, align 4
  store i32 %2, ptr %11, align 4
  store i32 %5, ptr %12, align 4
  store ptr %6, ptr %13, align 8
  %18 = load ptr, ptr %9, align 8
  %19 = load ptr, ptr %13, align 8
  %20 = getelementptr inbounds nuw %"class.clang::format::BreakableToken", ptr %18, i32 0, i32 1
  %21 = load ptr, ptr %20, align 8
  %22 = getelementptr inbounds nuw %"class.clang::format::BreakableStringLiteral", ptr %18, i32 0, i32 3
  %23 = call noundef i64 @_ZNK4llvm9StringRef4sizeEv(ptr noundef nonnull align 8 dereferenceable(16) %22)
  %24 = load i32, ptr %11, align 4
  %25 = zext i32 %24 to i64
  %26 = add i64 %23, %25
  %27 = getelementptr inbounds nuw %"struct.std::pair", ptr %8, i32 0, i32 0
  %28 = load i64, ptr %27, align 8
  %29 = add i64 %26, %28
  %30 = trunc i64 %29 to i32
  %31 = getelementptr inbounds nuw %"struct.std::pair", ptr %8, i32 0, i32 1
  %32 = load i32, ptr %31, align 8
  %33 = getelementptr inbounds nuw %"class.clang::format::BreakableStringLiteral", ptr %18, i32 0, i32 4
  call void @llvm.memcpy.p0.p0.i64(ptr align 8 %14, ptr align 8 %33, i64 16, i1 false)
  %34 = getelementptr inbounds nuw %"class.clang::format::BreakableStringLiteral", ptr %18, i32 0, i32 3
  call void @llvm.memcpy.p0.p0.i64(ptr align 8 %15, ptr align 8 %34, i64 16, i1 false)
  %35 = getelementptr inbounds nuw %"class.clang::format::BreakableToken", ptr %18, i32 0, i32 2
  %36 = load i8, ptr %35, align 8
  %37 = trunc i8 %36 to i1
  %38 = getelementptr inbounds nuw %"class.clang::format::BreakableStringLiteral", ptr %18, i32 0, i32 1
  %39 = load i32, ptr %38, align 8
  %40 = getelementptr inbounds nuw { ptr, i64 }, ptr %14, i32 0, i32 0
  %41 = load ptr, ptr %40, align 8
  %42 = getelementptr inbounds nuw { ptr, i64 }, ptr %14, i32 0, i32 1
  %43 = load i64, ptr %42, align 8
  call void @_ZN5clang6format17WhitespaceManager24replaceWhitespaceInTokenERKNS0_11FormatTokenEjjN4llvm9StringRefES6_bji(ptr noundef nonnull align 8 dereferenceable(2257) %19, ptr noundef nonnull align 8 dereferenceable(305) %21, i32 noundef %30, i32 noundef %32, ptr %41, i64 %43, ptr noundef byval(%"class.llvm::StringRef") align 8 %15, i1 noundef zeroext %37, i32 noundef 1, i32 noundef %39)
  ret void
}