; Function Attrs: mustprogress nounwind uwtable
define dso_local void @_ZNK5clang6format22BreakableStringLiteral11insertBreakEjjSt4pairImjEjRNS0_17WhitespaceManagerE(ptr nocapture noundef nonnull readonly align 8 dereferenceable(92) %0, i32 %1, i32 noundef %2, i64 %3, i32 %4, i32 %5, ptr noundef nonnull align 8 dereferenceable(2257) %6) unnamed_addr #0 align 2 {
  %8 = getelementptr inbounds nuw i8, ptr %0, i64 8
  %9 = load ptr, ptr %8, align 8
  %10 = getelementptr inbounds nuw i8, ptr %0, i64 40
  %11 = getelementptr inbounds i8, ptr %0, i64 48
  %12 = load i64, ptr %11, align 8
  %13 = zext i32 %2 to i64
  %14 = add i64 %3, %13
  %15 = add i64 %14, %12
  %16 = trunc i64 %15 to i32
  %17 = getelementptr inbounds nuw i8, ptr %0, i64 56
  %.sroa.0.0.copyload = load ptr, ptr %17, align 8
  %.sroa.2.0..sroa_idx = getelementptr inbounds i8, ptr %0, i64 64
  %.sroa.2.0.copyload = load i64, ptr %.sroa.2.0..sroa_idx, align 8
  %18 = getelementptr inbounds nuw i8, ptr %0, i64 16
  %19 = load i8, ptr %18, align 8
  %20 = trunc i8 %19 to i1
  %21 = getelementptr inbounds nuw i8, ptr %0, i64 32
  %22 = load i32, ptr %21, align 8
  tail call void @_ZN5clang6format17WhitespaceManager24replaceWhitespaceInTokenERKNS0_11FormatTokenEjjN4llvm9StringRefES6_bji(ptr noundef nonnull align 8 dereferenceable(2257) %6, ptr noundef nonnull align 8 dereferenceable(305) %9, i32 noundef %16, i32 noundef %4, ptr %.sroa.0.0.copyload, i64 %.sroa.2.0.copyload, ptr noundef nonnull byval(%"class.llvm::StringRef") align 8 %10, i1 noundef zeroext %20, i32 noundef 1, i32 noundef %22) #21
  ret void
}